; Function Attrs: nounwind uwtable
define internal i32 @Compressor_traverse(ptr noundef readonly captures(none) %0, ptr noundef readonly captures(none) %1, ptr noundef %2) #0 {
  %4 = getelementptr i8, ptr %0, i64 8
  %.val = load ptr, ptr %4, align 8, !tbaa !44
  %.not = icmp eq ptr %.val, null
  br i1 %.not, label %7, label %5

5:                                                ; preds = %3
  %6 = tail call i32 %1(ptr noundef nonnull %.val, ptr noundef %2) #10
  %.not8.not = icmp eq i32 %6, 0
  br i1 %.not8.not, label %7, label %8

7:                                                ; preds = %5, %3
  br label %8

8:                                                ; preds = %5, %7
  %.1 = phi i32 [ %6, %5 ], [ 0, %7 ]
  ret i32 %.1
}